target datalayout = "e-m:e-p270:32:32-p271:32:32-p272:64:64-i64:64-i128:128-f80:128-n8:16:32:64-S128"
target triple = "x86_64-pc-linux-gnu"

%"class.llvm::StringRef" = type { ptr, i64 }
%"class.llvm::StringMapImpl" = type { ptr, i32, i32, i32, i32 }
%"struct.(anonymous namespace)::StructInfo" = type { %"class.llvm::StringRef", i8, i8, i32, i32, i32, i32, %"class.std::vector.279", %"class.llvm::StringMap.284" }
%"class.std::vector.279" = type { %"struct.std::_Vector_base.280" }
%"struct.std::_Vector_base.280" = type { %"struct.std::_Vector_base<(anonymous namespace)::FieldInfo, std::allocator<(anonymous namespace)::FieldInfo>>::_Vector_impl" }
%"struct.std::_Vector_base<(anonymous namespace)::FieldInfo, std::allocator<(anonymous namespace)::FieldInfo>>::_Vector_impl" = type { %"struct.std::_Vector_base<(anonymous namespace)::FieldInfo, std::allocator<(anonymous namespace)::FieldInfo>>::_Vector_impl_data" }
%"struct.std::_Vector_base<(anonymous namespace)::FieldInfo, std::allocator<(anonymous namespace)::FieldInfo>>::_Vector_impl_data" = type { ptr, ptr, ptr }
%"class.llvm::StringMap.284" = type { %"class.llvm::StringMapImpl" }
%"class.(anonymous namespace)::FieldInitializer" = type { i32, %union.anon.287 }
%union.anon.287 = type { %"struct.(anonymous namespace)::StructFieldInfo" }
%"struct.(anonymous namespace)::StructFieldInfo" = type { %"class.std::vector.298", %"struct.(anonymous namespace)::StructInfo" }
%"class.std::vector.298" = type { %"struct.std::_Vector_base.299" }
%"struct.std::_Vector_base.299" = type { %"struct.std::_Vector_base<(anonymous namespace)::StructInitializer, std::allocator<(anonymous namespace)::StructInitializer>>::_Vector_impl" }
%"struct.std::_Vector_base<(anonymous namespace)::StructInitializer, std::allocator<(anonymous namespace)::StructInitializer>>::_Vector_impl" = type { %"struct.std::_Vector_base<(anonymous namespace)::StructInitializer, std::allocator<(anonymous namespace)::StructInitializer>>::_Vector_impl_data" }
%"struct.std::_Vector_base<(anonymous namespace)::StructInitializer, std::allocator<(anonymous namespace)::StructInitializer>>::_Vector_impl_data" = type { ptr, ptr, ptr }
%"class.__gnu_cxx::__normal_iterator.512" = type { ptr }

; Function Attrs: mustprogress nounwind uwtable
define internal noundef nonnull align 8 dereferenceable(8) ptr @_ZNK9__gnu_cxx17__normal_iteratorIPKN12_GLOBAL__N_116FieldInitializerESt6vectorIS2_SaIS2_EEE4baseEv(ptr noundef nonnull align 8 dereferenceable(8) %0) #0 align 2 {
  %2 = alloca ptr, align 8
  store ptr %0, ptr %2, align 8
  %3 = load ptr, ptr %2, align 8
  %4 = getelementptr inbounds nuw %"class.__gnu_cxx::__normal_iterator.512", ptr %3, i32 0, i32 0
  ret ptr %4
}

; Function Attrs: mustprogress nounwind uwtable
define internal noundef nonnull align 8 dereferenceable(8) ptr @_ZN9__gnu_cxx17__normal_iteratorIPKN12_GLOBAL__N_116FieldInitializerESt6vectorIS2_SaIS2_EEEppEv(ptr noundef nonnull align 8 dereferenceable(8) %0) #0 align 2 {
  %2 = alloca ptr, align 8
  store ptr %0, ptr %2, align 8
  %3 = load ptr, ptr %2, align 8
  %4 = getelementptr inbounds nuw %"class.__gnu_cxx::__normal_iterator.512", ptr %3, i32 0, i32 0
  %5 = load ptr, ptr %4, align 8
  %6 = getelementptr inbounds %"class.(anonymous namespace)::FieldInitializer", ptr %5, i32 1
  store ptr %6, ptr %4, align 8
  ret ptr %3
}

; Function Attrs: mustprogress nounwind uwtable
define internal void @_ZSt10_ConstructIN12_GLOBAL__N_116FieldInitializerEJRKS1_EEvPT_DpOT0_(ptr noundef %0, ptr noundef nonnull align 8 dereferenceable(120) %1) #0 {
  %3 = alloca ptr, align 8
  %4 = alloca ptr, align 8
  store ptr %0, ptr %3, align 8
  store ptr %1, ptr %4, align 8
  %5 = load ptr, ptr %3, align 8
  %6 = load ptr, ptr %4, align 8
  call void @_ZN12_GLOBAL__N_116FieldInitializerC2ERKS0_(ptr noundef nonnull align 8 dereferenceable(120) %5, ptr noundef nonnull align 8 dereferenceable(120) %6)
  ret void
}

; Function Attrs: mustprogress nounwind uwtable
define internal noundef nonnull align 8 dereferenceable(120) ptr @_ZNK9__gnu_cxx17__normal_iteratorIPKN12_GLOBAL__N_116FieldInitializerESt6vectorIS2_SaIS2_EEEdeEv(ptr noundef nonnull align 8 dereferenceable(8) %0) #0 align 2 {
  %2 = alloca ptr, align 8
  store ptr %0, ptr %2, align 8
  %3 = load ptr, ptr %2, align 8
  %4 = getelementptr inbounds nuw %"class.__gnu_cxx::__normal_iterator.512", ptr %3, i32 0, i32 0
  %5 = load ptr, ptr %4, align 8
  ret ptr %5
}

; Function Attrs: mustprogress nounwind uwtable
define internal noundef zeroext i1 @_ZN9__gnu_cxxneIPKN12_GLOBAL__N_116FieldInitializerESt6vectorIS2_SaIS2_EEEEbRKNS_17__normal_iteratorIT_T0_EESD_(ptr noundef nonnull align 8 dereferenceable(8) %0, ptr noundef nonnull align 8 dereferenceable(8) %1) #0 {
  %3 = alloca ptr, align 8
  %4 = alloca ptr, align 8
  store ptr %0, ptr %3, align 8
  store ptr %1, ptr %4, align 8
  %5 = load ptr, ptr %3, align 8
  %6 = call noundef nonnull align 8 dereferenceable(8) ptr @_ZNK9__gnu_cxx17__normal_iteratorIPKN12_GLOBAL__N_116FieldInitializerESt6vectorIS2_SaIS2_EEE4baseEv(ptr noundef nonnull align 8 dereferenceable(8) %5) #15
  %7 = load ptr, ptr %6, align 8
  %8 = load ptr, ptr %4, align 8
  %9 = call noundef nonnull align 8 dereferenceable(8) ptr @_ZNK9__gnu_cxx17__normal_iteratorIPKN12_GLOBAL__N_116FieldInitializerESt6vectorIS2_SaIS2_EEE4baseEv(ptr noundef nonnull align 8 dereferenceable(8) %8) #15
  %10 = load ptr, ptr %9, align 8
  %11 = icmp ne ptr %7, %10
  ret i1 %11
}

; Function Attrs: mustprogress nounwind uwtable
define internal noundef ptr @_ZSt16__do_uninit_copyIN9__gnu_cxx17__normal_iteratorIPKN12_GLOBAL__N_116FieldInitializerESt6vectorIS3_SaIS3_EEEEPS3_ET0_T_SC_SB_(ptr %0, ptr %1, ptr noundef %2) #0 {
  %4 = alloca %"class.__gnu_cxx::__normal_iterator.512", align 8
  %5 = alloca %"class.__gnu_cxx::__normal_iterator.512", align 8
  %6 = alloca ptr, align 8
  %7 = alloca ptr, align 8
  %8 = getelementptr inbounds nuw %"class.__gnu_cxx::__normal_iterator.512", ptr %4, i32 0, i32 0
  store ptr %0, ptr %8, align 8
  %9 = getelementptr inbounds nuw %"class.__gnu_cxx::__normal_iterator.512", ptr %5, i32 0, i32 0
  store ptr %1, ptr %9, align 8
  store ptr %2, ptr %6, align 8
  %10 = load ptr, ptr %6, align 8
  store ptr %10, ptr %7, align 8
  br label %11

11:                                               ; preds = %16, %3
  %12 = call noundef zeroext i1 @_ZN9__gnu_cxxneIPKN12_GLOBAL__N_116FieldInitializerESt6vectorIS2_SaIS2_EEEEbRKNS_17__normal_iteratorIT_T0_EESD_(ptr noundef nonnull align 8 dereferenceable(8) %4, ptr noundef nonnull align 8 dereferenceable(8) %5) #15
  br i1 %12, label %13, label %20

13:                                               ; preds = %11
  %14 = load ptr, ptr %7, align 8
  %15 = call noundef nonnull align 8 dereferenceable(120) ptr @_ZNK9__gnu_cxx17__normal_iteratorIPKN12_GLOBAL__N_116FieldInitializerESt6vectorIS2_SaIS2_EEEdeEv(ptr noundef nonnull align 8 dereferenceable(8) %4) #15
  call void @_ZSt10_ConstructIN12_GLOBAL__N_116FieldInitializerEJRKS1_EEvPT_DpOT0_(ptr noundef %14, ptr noundef nonnull align 8 dereferenceable(120) %15)
  br label %16

16:                                               ; preds = %13
  %17 = call noundef nonnull align 8 dereferenceable(8) ptr @_ZN9__gnu_cxx17__normal_iteratorIPKN12_GLOBAL__N_116FieldInitializerESt6vectorIS2_SaIS2_EEEppEv(ptr noundef nonnull align 8 dereferenceable(8) %4) #15
  %18 = load ptr, ptr %7, align 8
  %19 = getelementptr inbounds %"class.(anonymous namespace)::FieldInitializer", ptr %18, i32 1
  store ptr %19, ptr %7, align 8
  br label %11, !llvm.loop !123

20:                                               ; preds = %11
  %21 = load ptr, ptr %7, align 8
  ret ptr %21
}

; Function Attrs: mustprogress nounwind uwtable
define internal noundef ptr @_ZNSt20__uninitialized_copyILb0EE13__uninit_copyIN9__gnu_cxx17__normal_iteratorIPKN12_GLOBAL__N_116FieldInitializerESt6vectorIS5_SaIS5_EEEEPS5_EET0_T_SE_SD_(ptr %0, ptr %1, ptr noundef %2) #0 align 2 {
  %4 = alloca %"class.__gnu_cxx::__normal_iterator.512", align 8
  %5 = alloca %"class.__gnu_cxx::__normal_iterator.512", align 8
  %6 = alloca ptr, align 8
  %7 = alloca %"class.__gnu_cxx::__normal_iterator.512", align 8
  %8 = alloca %"class.__gnu_cxx::__normal_iterator.512", align 8
  %9 = getelementptr inbounds nuw %"class.__gnu_cxx::__normal_iterator.512", ptr %4, i32 0, i32 0
  store ptr %0, ptr %9, align 8
  %10 = getelementptr inbounds nuw %"class.__gnu_cxx::__normal_iterator.512", ptr %5, i32 0, i32 0
  store ptr %1, ptr %10, align 8
  store ptr %2, ptr %6, align 8
  call void @llvm.memcpy.p0.p0.i64(ptr align 8 %7, ptr align 8 %4, i64 8, i1 false)
  call void @llvm.memcpy.p0.p0.i64(ptr align 8 %8, ptr align 8 %5, i64 8, i1 false)
  %11 = load ptr, ptr %6, align 8
  %12 = getelementptr inbounds nuw %"class.__gnu_cxx::__normal_iterator.512", ptr %7, i32 0, i32 0
  %13 = load ptr, ptr %12, align 8
  %14 = getelementptr inbounds nuw %"class.__gnu_cxx::__normal_iterator.512", ptr %8, i32 0, i32 0
  %15 = load ptr, ptr %14, align 8
  %16 = call noundef ptr @_ZSt16__do_uninit_copyIN9__gnu_cxx17__normal_iteratorIPKN12_GLOBAL__N_116FieldInitializerESt6vectorIS3_SaIS3_EEEEPS3_ET0_T_SC_SB_(ptr %13, ptr %15, ptr noundef %11)
  ret ptr %16
}

; Function Attrs: mustprogress nounwind uwtable
define internal noundef ptr @_ZSt18uninitialized_copyIN9__gnu_cxx17__normal_iteratorIPKN12_GLOBAL__N_116FieldInitializerESt6vectorIS3_SaIS3_EEEEPS3_ET0_T_SC_SB_(ptr %0, ptr %1, ptr noundef %2) #0 {
  %4 = alloca %"class.__gnu_cxx::__normal_iterator.512", align 8
  %5 = alloca %"class.__gnu_cxx::__normal_iterator.512", align 8
  %6 = alloca ptr, align 8
  %7 = alloca i8, align 1
  %8 = alloca i8, align 1
  %9 = alloca %"class.__gnu_cxx::__normal_iterator.512", align 8
  %10 = alloca %"class.__gnu_cxx::__normal_iterator.512", align 8
  %11 = getelementptr inbounds nuw %"class.__gnu_cxx::__normal_iterator.512", ptr %4, i32 0, i32 0
  store ptr %0, ptr %11, align 8
  %12 = getelementptr inbounds nuw %"class.__gnu_cxx::__normal_iterator.512", ptr %5, i32 0, i32 0
  store ptr %1, ptr %12, align 8
  store ptr %2, ptr %6, align 8
  store i8 0, ptr %7, align 1
  store i8 0, ptr %8, align 1
  call void @llvm.memcpy.p0.p0.i64(ptr align 8 %9, ptr align 8 %4, i64 8, i1 false)
  call void @llvm.memcpy.p0.p0.i64(ptr align 8 %10, ptr align 8 %5, i64 8, i1 false)
  %13 = load ptr, ptr %6, align 8
  %14 = getelementptr inbounds nuw %"class.__gnu_cxx::__normal_iterator.512", ptr %9, i32 0, i32 0
  %15 = load ptr, ptr %14, align 8
  %16 = getelementptr inbounds nuw %"class.__gnu_cxx::__normal_iterator.512", ptr %10, i32 0, i32 0
  %17 = load ptr, ptr %16, align 8
  %18 = call noundef ptr @_ZNSt20__uninitialized_copyILb0EE13__uninit_copyIN9__gnu_cxx17__normal_iteratorIPKN12_GLOBAL__N_116FieldInitializerESt6vectorIS5_SaIS5_EEEEPS5_EET0_T_SE_SD_(ptr %15, ptr %17, ptr noundef %13)
  ret ptr %18
}