; Function Attrs: mustprogress nounwind uwtable
define internal fastcc noundef ptr @_ZSt18uninitialized_copyIN9__gnu_cxx17__normal_iteratorIPKN12_GLOBAL__N_116FieldInitializerESt6vectorIS3_SaIS3_EEEEPS3_ET0_T_SC_SB_(ptr %0, ptr readnone %1, ptr noundef %2) unnamed_addr #0 {
  %.not5 = icmp eq ptr %0, %1
  br i1 %.not5, label %_ZSt16__do_uninit_copyIN9__gnu_cxx17__normal_iteratorIPKN12_GLOBAL__N_116FieldInitializerESt6vectorIS3_SaIS3_EEEEPS3_ET0_T_SC_SB_.exit, label %.lr.ph

.lr.ph:                                           ; preds = %3, %.lr.ph
  %.0.i7 = phi ptr [ %5, %.lr.ph ], [ %2, %3 ]
  %.sroa.04.06 = phi ptr [ %4, %.lr.ph ], [ %0, %3 ]
  tail call fastcc void @_ZN12_GLOBAL__N_116FieldInitializerC2ERKS0_(ptr noundef nonnull align 8 dereferenceable(120) %.0.i7, ptr noundef nonnull align 8 dereferenceable(120) %.sroa.04.06)
  %4 = getelementptr inbounds nuw i8, ptr %.sroa.04.06, i64 120
  %5 = getelementptr inbounds nuw i8, ptr %.0.i7, i64 120
  %.not = icmp eq ptr %4, %1
  br i1 %.not, label %_ZSt16__do_uninit_copyIN9__gnu_cxx17__normal_iteratorIPKN12_GLOBAL__N_116FieldInitializerESt6vectorIS3_SaIS3_EEEEPS3_ET0_T_SC_SB_.exit, label %.lr.ph, !llvm.loop !839

_ZSt16__do_uninit_copyIN9__gnu_cxx17__normal_iteratorIPKN12_GLOBAL__N_116FieldInitializerESt6vectorIS3_SaIS3_EEEEPS3_ET0_T_SC_SB_.exit: ; preds = %.lr.ph, %3
  %.0.i.lcssa = phi ptr [ %2, %3 ], [ %5, %.lr.ph ]
  ret ptr %.0.i.lcssa
}